(lp0
(VChina
p1
I4456076
tp2
a(VIndia
p3
I3414582
tp4
a(VIran
p5
I2631035
tp6
a(VRussia
p7
I1521434
tp8
a(VUnited States
p9
I1150963
tp10
a(VBrazil
p11
I1021540
tp12
a(VEgypt
p13
I801106
tp14
a(VIndonesia
p15
I780873
tp16
a(VN/A
p17
I562693
tp18
a(VFrance
p19
I511145
tp20
a(VMexico
p21
I503093
tp22
a(VMorocco
p23
I497306
tp24
a(VPakistan
p25
I493996
tp26
a(VGermany
p27
I462011
tp28
a(VPortugal
p29
I434721
tp30
a(VSpain
p31
I426412
tp32
a(VChile
p33
I425596
tp34
a(VColombia
p35
I414783
tp36
a(VArgentina
p37
I410986
tp38
a(VTurkey
p39
I393308
tp40
a.