(lp0
(VPortugal
p1
F0.04196928078148876
tp2
a(VTunisia
p3
F0.03037509383987351
tp4
a(VGreece
p5
F0.026379732596683653
tp6
a(VChile
p7
F0.023684547796462122
tp8
a(VLuxembourg
p9
F0.020993532348789687
tp10
a(VSlovenia
p11
F0.019776296067274976
tp12
a(VLatvia
p13
F0.018049311083995313
tp14
a(VCroatia
p15
F0.01796410889322591
tp16
a(VIceland
p17
F0.01760500581896226
tp18
a(VGibraltar
p19
F0.015888072089162913
tp20
a(VIreland
p21
F0.015819157852783428
tp22
a(VLithuania
p23
F0.015236272380211436
tp24
a(VMalta
p25
F0.015025176776698505
tp26
a(VMorocco
p27
F0.014346633268330473
tp28
a(VSingapore
p29
F0.013533689780057893
tp30
a(VMalaysia
p31
F0.012346882137409441
tp32
a(VPeru
p33
F0.012251920153941812
tp34
a(VHungary
p35
F0.012164041390515195
tp36
a(VSwitzerland
p37
F0.011787893261804917
tp38
a(VSeychelles
p39
F0.011667861998094607
tp40
a.