ccollections
defaultdict
p0
(c__builtin__
int
p1
tp2
Rp3
V2015-10-20
p4
I211899
sV2015-09-02
p5
I216188
sV2015-11-24
p6
I139344
sV2015-11-25
p7
I135707
sV2015-11-22
p8
I39967
sV2015-11-26
p9
I125278
sV2016-01-04
p10
I163768
sV2016-01-05
p11
I172209
sV2016-01-06
p12
I119157
sV2016-01-07
p13
I132052
sV2016-01-01
p14
I87277
sV2016-01-02
p15
I112029
sV2016-01-03
p16
I111728
sV2016-01-08
p17
I85761
sV2016-01-09
p18
I121763
sV2015-12-21
p19
I159852
sV2015-12-20
p20
I117865
sV2015-12-23
p21
I57566
sV2015-12-22
p22
I169552
sV2015-12-25
p23
I87229
sV2015-12-24
p24
I81695
sV2015-09-16
p25
I191777
sV2015-12-26
p26
I99907
sV2015-12-29
p27
I60021
sV2015-12-28
p28
I9534
sV2015-11-23
p29
I132895
sV2016-03-01
p30
I2
sV2016-01-19
p31
I199521
sV2016-01-18
p32
I193387
sV2015-11-28
p33
I98349
sV2015-11-29
p34
I109454
sV2015-10-26
p35
I239419
sV2016-01-13
p36
I173148
sV2016-01-12
p37
I182815
sV2016-01-11
p38
I177125
sV2016-01-10
p39
I126172
sV2016-01-17
p40
I134223
sV2016-01-16
p41
I127633
sV2016-01-15
p42
I157783
sV2016-01-14
p43
I170317
sV2015-09-30
p44
I189749
sV2016-02-23
p45
I276574
sV2016-02-22
p46
I263404
sV2016-02-21
p47
I201729
sV2015-12-17
p48
I159986
sV2016-02-27
p49
I191950
sV2016-02-26
p50
I258522
sV2016-02-25
p51
I285294
sV2016-02-24
p52
I287524
sV2015-10-30
p53
I203869
sV2015-10-31
p54
I157537
sV2016-02-29
p55
I282656
sV2016-02-28
p56
I197995
sV2015-12-18
p57
I143163
sV2015-12-19
p58
I113947
sV2015-09-09
p59
I106014
sV2015-09-08
p60
I161909
sV2015-10-07
p61
I196240
sV2015-11-30
p62
I152988
sV2015-12-14
p63
I99728
sV2015-12-09
p64
I166353
sV2015-12-08
p65
I162162
sV2015-12-15
p66
I179622
sV2015-12-03
p67
I153125
sV2015-12-02
p68
I159873
sV2015-12-01
p69
I159110
sV2015-12-07
p70
I160000
sV2015-12-06
p71
I118645
sV2015-12-05
p72
I115699
sV2015-12-04
p73
I141592
sV2016-02-20
p74
I194618
sV2015-10-29
p75
I216588
sV2015-10-28
p76
I227398
sV2015-10-27
p77
I235817
sV2015-12-10
p78
I163833
sV2015-10-25
p79
I162015
sV2015-10-24
p80
I144169
sV2015-10-23
p81
I194017
sV2015-10-22
p82
I206038
sV2015-10-21
p83
I221229
sV2015-12-11
p84
I160983
sV2015-12-12
p85
I123507
sV2015-09-23
p86
I185905
sV2015-12-13
p87
I110384
sV2015-09-03
p88
I164475
sV2015-09-10
p89
I168581
sV2015-09-11
p90
I178039
sV2015-09-12
p91
I136263
sV2015-09-13
p92
I128320
sV2015-09-14
p93
I181225
sV2015-09-15
p94
I179402
sV2015-09-17
p95
I182311
sV2015-09-18
p96
I136835
sV2015-09-19
p97
I136283
sV2015-12-16
p98
I197410
sV2015-09-07
p99
I126391
sV2015-10-16
p100
I217571
sV2015-10-17
p101
I151682
sV2015-10-14
p102
I236997
sV2015-10-15
p103
I228642
sV2015-10-12
p104
I241172
sV2015-10-13
p105
I238358
sV2015-10-10
p106
I175451
sV2015-10-11
p107
I164789
sV2015-10-18
p108
I159507
sV2015-10-19
p109
I234930
sV2015-09-06
p110
I121198
sV2016-01-22
p111
I219520
sV2016-01-23
p112
I158933
sV2016-01-20
p113
I197684
sV2016-01-21
p114
I198652
sV2016-01-26
p115
I199233
sV2016-01-27
p116
I198213
sV2016-01-24
p117
I147636
sV2016-01-25
p118
I209929
sV2016-01-28
p119
I189977
sV2016-01-29
p120
I174113
sV2016-02-18
p121
I242040
sV2016-02-19
p122
I228539
sV2015-09-05
p123
I91168
sV2015-09-22
p124
I195031
sV2016-02-12
p125
I224429
sV2016-02-13
p126
I207334
sV2016-02-10
p127
I192981
sV2016-02-11
p128
I193218
sV2016-02-16
p129
I255052
sV2016-02-17
p130
I250275
sV2016-02-14
p131
I163895
sV2016-02-15
p132
I208310
sV2015-10-05
p133
I209610
sV2015-10-04
p134
I130392
sV2015-11-27
p135
I126436
sV2015-10-06
p136
I202665
sV2015-10-01
p137
I163759
sV2015-09-01
p138
I259212
sV2015-10-03
p139
I125717
sV2015-10-02
p140
I144241
sV2015-10-09
p141
I211024
sV2015-10-08
p142
I219405
sV2015-09-25
p143
I159892
sV2015-09-04
p144
I141425
sV2015-11-02
p145
I242674
sV2015-11-03
p146
I250108
sV2015-11-01
p147
I158860
sV2015-09-27
p148
I125160
sV2015-11-04
p149
I137325
sV2016-01-31
p150
I121819
sV2016-01-30
p151
I137935
sV2015-09-26
p152
I119559
sV2015-09-21
p153
I217846
sV2015-09-20
p154
I135501
sV2016-02-09
p155
I187652
sV2016-02-08
p156
I184710
sV2015-12-30
p157
I140105
sV2015-12-31
p158
I107062
sV2015-09-29
p159
I201481
sV2015-09-28
p160
I205225
sV2016-02-01
p161
I200054
sV2015-09-24
p162
I161953
sV2016-02-03
p163
I200592
sV2016-02-02
p164
I198192
sV2016-02-05
p165
I178126
sV2016-02-04
p166
I190509
sV2016-02-07
p167
I123561
sV2016-02-06
p168
I143356
s.