(lp0
(VEast Lansing
p1
F1.4032829427029698
tp2
a(VMountain View
p3
F0.7275518331063895
tp4
a(VColumbus
p5
F0.4200983069361005
tp6
a(VManassas
p7
F0.32334252487711307
tp8
a(VProvo
p9
F0.30764137314254264
tp10
a(VFremont
p11
F0.2640426458950214
tp12
a(VPasadena
p13
F0.1659541035126199
tp14
a(VBradenton
p15
F0.13886366709812029
tp16
a(VNewark
p17
F0.11398790212863931
tp18
a(VSan Mateo
p19
F0.09203188038920972
tp20
a(VScottsdale
p21
F0.08306965511770772
tp22
a(VKansas City
p23
F0.058168275156078475
tp24
a(VBurbank
p25
F0.05295628838017744
tp26
a(VOrange
p27
F0.04738906472147404
tp28
a(VSan Leandro
p29
F0.04496106405956915
tp30
a(VCambridge
p31
F0.04345273047563124
tp32
a(VCupertino
p33
F0.042183787735300474
tp34
a(VRochester
p35
F0.04056418106275968
tp36
a(VState College
p37
F0.040304619584740284
tp38
a(VPortland
p39
F0.03864712446093067
tp40
a.