(lp0
(V10.1016
p1
I9296486
tp2
a(V10.1007
p3
I2621957
tp4
a(V10.1109
p5
I2138064
tp6
a(V10.1021
p7
I1871934
tp8
a(V10.1002
p9
I1367250
tp10
a(V10.1038
p11
I1121881
tp12
a(V10.1039
p13
I927239
tp14
a(V10.1080
p15
I906221
tp16
a(V10.1111
p17
I814996
tp18
a(V10.1177
p19
I377267
tp20
a.