(lp0
(V10.1007/978-1-4419-9716-6_11
p1
I7988
tp2
a(V10.1056/NEJMoa1402121
p3
I6117
tp4
a(V10.1116/1.4904970
p5
I2991
tp6
a(V10.1103/PhysRevB.63.224204
p7
I2890
tp8
a(V10.1182/asheducation-2015.1.8
p9
I2528
tp10
a(V10.4028/www.scientific.net/AMM.7-8.159
p11
I2266
tp12
a(V10.1111/j.1365-277X.2004.00520.x
p13
I2241
tp14
a(V10.1002/pmic.200600525
p15
I2168
tp16
a(V10.1161/CIRCRESAHA.117.306290
p17
I2001
tp18
a(V10.1002/smll.201002009
p19
I1806
tp20
a.